; Function Attrs: nounwind uwtable
define dso_local void @_zend_observer_function_declared_notify(ptr noundef %0, ptr noundef %1) local_unnamed_addr #0 {
  %3 = load i32, ptr getelementptr inbounds nuw (i8, ptr @compiler_globals, i64 172), align 4, !tbaa !76
  %4 = and i32 %3, 262144
  %.not = icmp ne i32 %4, 0
  %.07 = load ptr, ptr @zend_observer_function_declared_callbacks, align 8
  %.not68 = icmp eq ptr %.07, null
  %or.cond = select i1 %.not, i1 true, i1 %.not68
  br i1 %or.cond, label %.loopexit, label %.lr.ph

.lr.ph:                                           ; preds = %2, %.lr.ph
  %.09 = phi ptr [ %.0, %.lr.ph ], [ %.07, %2 ]
  %5 = getelementptr inbounds nuw i8, ptr %.09, i64 16
  %6 = load ptr, ptr %5, align 8, !tbaa !4
  tail call void %6(ptr noundef %0, ptr noundef %1) #8
  %.0 = load ptr, ptr %.09, align 8, !tbaa !72
  %.not6 = icmp eq ptr %.0, null
  br i1 %.not6, label %.loopexit, label %.lr.ph

.loopexit:                                        ; preds = %.lr.ph, %2
  ret void
}